; Function Attrs: nounwind uwtable
define internal i32 @get_rsa_payload_f9(i32 noundef %0, ptr noundef captures(address_is_null) %1, ptr noundef %2) #0 {
  %4 = alloca [10 x ptr], align 16
  %5 = getelementptr inbounds nuw i8, ptr %2, i64 32
  %6 = load ptr, ptr %5, align 8, !tbaa !35
  %7 = tail call i32 @EVP_PKEY_get_base_id(ptr noundef %6) #8
  %.not = icmp eq i32 %7, 6
  br i1 %.not, label %11, label %8

8:                                                ; preds = %3
  %9 = load ptr, ptr %5, align 8, !tbaa !35
  %10 = tail call i32 @EVP_PKEY_get_base_id(ptr noundef %9) #8
  %.not5 = icmp eq i32 %10, 912
  br i1 %.not5, label %11, label %get_rsa_payload_factor.exit

11:                                               ; preds = %8, %3
  %12 = load ptr, ptr %5, align 8, !tbaa !35
  %13 = tail call ptr @EVP_PKEY_get0_RSA(ptr noundef %12) #8
  %14 = tail call i32 @RSA_get_multi_prime_extra_count(ptr noundef %13) #8
  call void @llvm.lifetime.start.p0(i64 80, ptr nonnull %4) #8
  %15 = icmp ugt i32 %14, 6
  br i1 %15, label %16, label %.thread

16:                                               ; preds = %11
  %17 = call i32 @RSA_get0_multi_prime_factors(ptr noundef %13, ptr noundef nonnull %4) #8
  %.not.i = icmp eq i32 %17, 0
  br i1 %.not.i, label %.thread, label %18

.thread:                                          ; preds = %16, %11
  call void @llvm.lifetime.end.p0(i64 80, ptr nonnull %4) #8
  br label %get_rsa_payload_factor.exit

18:                                               ; preds = %16
  %19 = getelementptr inbounds nuw i8, ptr %4, i64 48
  %20 = load ptr, ptr %19, align 16, !tbaa !82
  call void @llvm.lifetime.end.p0(i64 80, ptr nonnull %4) #8
  %21 = icmp eq ptr %20, null
  br i1 %21, label %get_rsa_payload_factor.exit, label %22

22:                                               ; preds = %18
  %23 = getelementptr inbounds nuw i8, ptr %2, i64 48
  %24 = load ptr, ptr %23, align 8, !tbaa !37
  %25 = getelementptr inbounds nuw i8, ptr %24, i64 8
  %26 = load i32, ptr %25, align 8, !tbaa !57
  %.not.i.i = icmp eq i32 %26, 2
  br i1 %.not.i.i, label %27, label %get_rsa_payload_factor.exit

27:                                               ; preds = %22
  store ptr %20, ptr %5, align 8, !tbaa !35
  %28 = call i32 @default_fixup_args(i32 noundef %0, ptr noundef %1, ptr noundef nonnull %2)
  br label %get_rsa_payload_factor.exit

get_rsa_payload_factor.exit:                      ; preds = %27, %22, %18, %.thread, %8
  %.0 = phi i32 [ 0, %8 ], [ %28, %27 ], [ 0, %18 ], [ 0, %22 ], [ 0, %.thread ]
  ret i32 %.0
}